target datalayout = "e-m:e-p270:32:32-p271:32:32-p272:64:64-i64:64-i128:128-f80:128-n8:16:32:64-S128"
target triple = "x86_64-pc-linux-gnu"

@Kit_PlaToTruth6.Truth = internal global [8 x i64] [i64 -6148914691236517206, i64 -3689348814741910324, i64 -1085102592571150096, i64 -71777214294589696, i64 -281470681808896, i64 -4294967296, i64 0, i64 -1], align 16

; Function Attrs: nounwind uwtable
define i32 @Kit_PlaIsComplement(ptr noundef %0) #0 {
  %2 = alloca i32, align 4
  %3 = alloca ptr, align 8
  %4 = alloca ptr, align 8
  %5 = alloca i32, align 4
  store ptr %0, ptr %3, align 8, !tbaa !3
  call void @llvm.lifetime.start.p0(i64 8, ptr %4) #9
  %6 = load ptr, ptr %3, align 8, !tbaa !3
  store ptr %6, ptr %4, align 8, !tbaa !3
  br label %7

7:                                                ; preds = %32, %1
  %8 = load ptr, ptr %4, align 8, !tbaa !3
  %9 = load i8, ptr %8, align 1, !tbaa !8
  %10 = icmp ne i8 %9, 0
  br i1 %10, label %11, label %35

11:                                               ; preds = %7
  %12 = load ptr, ptr %4, align 8, !tbaa !3
  %13 = load i8, ptr %12, align 1, !tbaa !8
  %14 = sext i8 %13 to i32
  %15 = icmp eq i32 %14, 10
  br i1 %15, label %16, label %31

16:                                               ; preds = %11
  %17 = load ptr, ptr %4, align 8, !tbaa !3
  %18 = getelementptr inbounds i8, ptr %17, i64 -1
  %19 = load i8, ptr %18, align 1, !tbaa !8
  %20 = sext i8 %19 to i32
  %21 = icmp eq i32 %20, 48
  br i1 %21, label %28, label %22

22:                                               ; preds = %16
  %23 = load ptr, ptr %4, align 8, !tbaa !3
  %24 = getelementptr inbounds i8, ptr %23, i64 -1
  %25 = load i8, ptr %24, align 1, !tbaa !8
  %26 = sext i8 %25 to i32
  %27 = icmp eq i32 %26, 110
  br label %28

28:                                               ; preds = %22, %16
  %29 = phi i1 [ true, %16 ], [ %27, %22 ]
  %30 = zext i1 %29 to i32
  store i32 %30, ptr %2, align 4
  store i32 1, ptr %5, align 4
  br label %36

31:                                               ; preds = %11
  br label %32

32:                                               ; preds = %31
  %33 = load ptr, ptr %4, align 8, !tbaa !3
  %34 = getelementptr inbounds nuw i8, ptr %33, i32 1
  store ptr %34, ptr %4, align 8, !tbaa !3
  br label %7, !llvm.loop !14

35:                                               ; preds = %7
  store i32 0, ptr %2, align 4
  store i32 1, ptr %5, align 4
  br label %36

36:                                               ; preds = %35, %28
  call void @llvm.lifetime.end.p0(i64 8, ptr %4) #9
  %37 = load i32, ptr %2, align 4
  ret i32 %37
}

; Function Attrs: nounwind uwtable
define i64 @Kit_PlaToTruth6(ptr noundef %0, i32 noundef %1) #0 {
  %3 = alloca ptr, align 8
  %4 = alloca i32, align 4
  %5 = alloca i64, align 8
  %6 = alloca i64, align 8
  %7 = alloca i32, align 4
  %8 = alloca i32, align 4
  store ptr %0, ptr %3, align 8, !tbaa !3
  store i32 %1, ptr %4, align 4, !tbaa !11
  call void @llvm.lifetime.start.p0(i64 8, ptr %5) #9
  call void @llvm.lifetime.start.p0(i64 8, ptr %6) #9
  %9 = load i64, ptr getelementptr inbounds ([8 x i64], ptr @Kit_PlaToTruth6.Truth, i64 0, i64 6), align 16, !tbaa !42
  store i64 %9, ptr %6, align 8, !tbaa !42
  call void @llvm.lifetime.start.p0(i64 4, ptr %7) #9
  call void @llvm.lifetime.start.p0(i64 4, ptr %8) #9
  store i32 0, ptr %8, align 4, !tbaa !11
  br label %10

10:                                               ; preds = %74, %2
  %11 = load i64, ptr getelementptr inbounds ([8 x i64], ptr @Kit_PlaToTruth6.Truth, i64 0, i64 7), align 8, !tbaa !42
  store i64 %11, ptr %5, align 8, !tbaa !42
  store i32 0, ptr %7, align 4, !tbaa !11
  br label %12

12:                                               ; preds = %59, %10
  %13 = load i32, ptr %7, align 4, !tbaa !11
  %14 = load i32, ptr %4, align 4, !tbaa !11
  %15 = icmp slt i32 %13, %14
  br i1 %15, label %16, label %64

16:                                               ; preds = %12
  %17 = load ptr, ptr %3, align 8, !tbaa !3
  %18 = load i32, ptr %8, align 4, !tbaa !11
  %19 = sext i32 %18 to i64
  %20 = getelementptr inbounds i8, ptr %17, i64 %19
  %21 = load i8, ptr %20, align 1, !tbaa !8
  %22 = sext i8 %21 to i32
  %23 = icmp eq i32 %22, 49
  br i1 %23, label %24, label %31

24:                                               ; preds = %16
  %25 = load i32, ptr %7, align 4, !tbaa !11
  %26 = sext i32 %25 to i64
  %27 = getelementptr inbounds [8 x i64], ptr @Kit_PlaToTruth6.Truth, i64 0, i64 %26
  %28 = load i64, ptr %27, align 8, !tbaa !42
  %29 = load i64, ptr %5, align 8, !tbaa !42
  %30 = and i64 %29, %28
  store i64 %30, ptr %5, align 8, !tbaa !42
  br label %58

31:                                               ; preds = %16
  %32 = load ptr, ptr %3, align 8, !tbaa !3
  %33 = load i32, ptr %8, align 4, !tbaa !11
  %34 = sext i32 %33 to i64
  %35 = getelementptr inbounds i8, ptr %32, i64 %34
  %36 = load i8, ptr %35, align 1, !tbaa !8
  %37 = sext i8 %36 to i32
  %38 = icmp eq i32 %37, 48
  br i1 %38, label %39, label %47

39:                                               ; preds = %31
  %40 = load i32, ptr %7, align 4, !tbaa !11
  %41 = sext i32 %40 to i64
  %42 = getelementptr inbounds [8 x i64], ptr @Kit_PlaToTruth6.Truth, i64 0, i64 %41
  %43 = load i64, ptr %42, align 8, !tbaa !42
  %44 = xor i64 %43, -1
  %45 = load i64, ptr %5, align 8, !tbaa !42
  %46 = and i64 %45, %44
  store i64 %46, ptr %5, align 8, !tbaa !42
  br label %57

47:                                               ; preds = %31
  %48 = load ptr, ptr %3, align 8, !tbaa !3
  %49 = load i32, ptr %8, align 4, !tbaa !11
  %50 = sext i32 %49 to i64
  %51 = getelementptr inbounds i8, ptr %48, i64 %50
  %52 = load i8, ptr %51, align 1, !tbaa !8
  %53 = sext i8 %52 to i32
  %54 = icmp ne i32 %53, 45
  br i1 %54, label %55, label %56

55:                                               ; preds = %47
  br label %56

56:                                               ; preds = %55, %47
  br label %57

57:                                               ; preds = %56, %39
  br label %58

58:                                               ; preds = %57, %24
  br label %59

59:                                               ; preds = %58
  %60 = load i32, ptr %7, align 4, !tbaa !11
  %61 = add nsw i32 %60, 1
  store i32 %61, ptr %7, align 4, !tbaa !11
  %62 = load i32, ptr %8, align 4, !tbaa !11
  %63 = add nsw i32 %62, 1
  store i32 %63, ptr %8, align 4, !tbaa !11
  br label %12, !llvm.loop !44

64:                                               ; preds = %12
  %65 = load i64, ptr %5, align 8, !tbaa !42
  %66 = load i64, ptr %6, align 8, !tbaa !42
  %67 = or i64 %66, %65
  store i64 %67, ptr %6, align 8, !tbaa !42
  %68 = load i32, ptr %8, align 4, !tbaa !11
  %69 = add nsw i32 %68, 1
  store i32 %69, ptr %8, align 4, !tbaa !11
  %70 = load i32, ptr %8, align 4, !tbaa !11
  %71 = add nsw i32 %70, 1
  store i32 %71, ptr %8, align 4, !tbaa !11
  %72 = load i32, ptr %8, align 4, !tbaa !11
  %73 = add nsw i32 %72, 1
  store i32 %73, ptr %8, align 4, !tbaa !11
  br label %74

74:                                               ; preds = %64
  %75 = load ptr, ptr %3, align 8, !tbaa !3
  %76 = load i32, ptr %8, align 4, !tbaa !11
  %77 = sext i32 %76 to i64
  %78 = getelementptr inbounds i8, ptr %75, i64 %77
  %79 = load i8, ptr %78, align 1, !tbaa !8
  %80 = icmp ne i8 %79, 0
  br i1 %80, label %10, label %81, !llvm.loop !45

81:                                               ; preds = %74
  %82 = load ptr, ptr %3, align 8, !tbaa !3
  %83 = call i32 @Kit_PlaIsComplement(ptr noundef %82)
  %84 = icmp ne i32 %83, 0
  br i1 %84, label %85, label %88

85:                                               ; preds = %81
  %86 = load i64, ptr %6, align 8, !tbaa !42
  %87 = xor i64 %86, -1
  store i64 %87, ptr %6, align 8, !tbaa !42
  br label %88

88:                                               ; preds = %85, %81
  %89 = load i64, ptr %6, align 8, !tbaa !42
  call void @llvm.lifetime.end.p0(i64 4, ptr %8) #9
  call void @llvm.lifetime.end.p0(i64 4, ptr %7) #9
  call void @llvm.lifetime.end.p0(i64 8, ptr %6) #9
  call void @llvm.lifetime.end.p0(i64 8, ptr %5) #9
  ret i64 %89
}